target datalayout = "e-m:e-p270:32:32-p271:32:32-p272:64:64-i64:64-i128:128-f80:128-n8:16:32:64-S128"
target triple = "x86_64-pc-linux-gnu"

; Function Attrs: nounwind uwtable
define internal i32 @fnv1a(ptr noundef %0, i32 noundef %1) #0 {
  %3 = alloca ptr, align 8
  %4 = alloca i32, align 4
  %5 = alloca i32, align 4
  %6 = alloca i32, align 4
  store ptr %0, ptr %3, align 8
  store i32 %1, ptr %4, align 4
  store i32 -2128831035, ptr %5, align 4
  store i32 0, ptr %6, align 4
  br label %7

7:                                                ; preds = %21, %2
  %8 = load i32, ptr %6, align 4
  %9 = load i32, ptr %4, align 4
  %10 = icmp ult i32 %8, %9
  br i1 %10, label %11, label %24

11:                                               ; preds = %7
  %12 = load ptr, ptr %3, align 8
  %13 = load i32, ptr %6, align 4
  %14 = zext i32 %13 to i64
  %15 = getelementptr inbounds i8, ptr %12, i64 %14
  %16 = load i8, ptr %15, align 1
  %17 = sext i8 %16 to i32
  %18 = load i32, ptr %5, align 4
  %19 = xor i32 %17, %18
  %20 = mul i32 %19, 16777619
  store i32 %20, ptr %5, align 4
  br label %21

21:                                               ; preds = %11
  %22 = load i32, ptr %6, align 4
  %23 = add i32 %22, 1
  store i32 %23, ptr %6, align 4
  br label %7, !llvm.loop !14

24:                                               ; preds = %7
  %25 = load i32, ptr %5, align 4
  ret i32 %25
}

; Function Attrs: nounwind uwtable
define dso_local ptr @symtab_preset(ptr noundef %0, i32 noundef %1) #0 {
  %3 = alloca ptr, align 8
  %4 = alloca i32, align 4
  %5 = alloca i32, align 4
  %6 = alloca i32, align 4
  %7 = alloca ptr, align 8
  store ptr %0, ptr %3, align 8
  store i32 %1, ptr %4, align 4
  %8 = load ptr, ptr %3, align 8
  %9 = call i64 @strlen(ptr noundef %8) #10
  %10 = trunc i64 %9 to i32
  store i32 %10, ptr %5, align 4
  %11 = load i32, ptr %4, align 4
  store i32 %11, ptr %6, align 4
  %12 = load ptr, ptr %3, align 8
  %13 = load i32, ptr %5, align 4
  %14 = load ptr, ptr %3, align 8
  %15 = load i32, ptr %5, align 4
  %16 = call i32 @fnv1a(ptr noundef %14, i32 noundef %15)
  %17 = call ptr @symtab_add(ptr noundef %12, i32 noundef %13, i32 noundef %16, ptr noundef %6)
  store ptr %17, ptr %7, align 8
  %18 = load ptr, ptr %7, align 8
  ret ptr %18
}