; Function Attrs: nounwind uwtable
define dso_local ptr @symtab_preset(ptr noundef %0, i32 noundef %1) local_unnamed_addr #2 {
  %3 = alloca i32, align 4
  %4 = tail call i64 @strlen(ptr noundef nonnull dereferenceable(1) %0) #14
  %5 = trunc i64 %4 to i32
  store i32 %1, ptr %3, align 4
  %.not.i = icmp eq i32 %5, 0
  br i1 %.not.i, label %fnv1a.exit, label %.lr.ph.preheader.i

.lr.ph.preheader.i:                               ; preds = %2
  %wide.trip.count.i = and i64 %4, 4294967295
  br label %.lr.ph.i

.lr.ph.i:                                         ; preds = %.lr.ph.i, %.lr.ph.preheader.i
  %indvars.iv.i = phi i64 [ 0, %.lr.ph.preheader.i ], [ %indvars.iv.next.i, %.lr.ph.i ]
  %.067.i = phi i32 [ -2128831035, %.lr.ph.preheader.i ], [ %10, %.lr.ph.i ]
  %6 = getelementptr inbounds i8, ptr %0, i64 %indvars.iv.i
  %7 = load i8, ptr %6, align 1
  %8 = sext i8 %7 to i32
  %9 = xor i32 %.067.i, %8
  %10 = mul i32 %9, 16777619
  %indvars.iv.next.i = add nuw nsw i64 %indvars.iv.i, 1
  %exitcond.not.i = icmp eq i64 %indvars.iv.next.i, %wide.trip.count.i
  br i1 %exitcond.not.i, label %fnv1a.exit, label %.lr.ph.i, !llvm.loop !7

fnv1a.exit:                                       ; preds = %.lr.ph.i, %2
  %.06.lcssa.i = phi i32 [ -2128831035, %2 ], [ %10, %.lr.ph.i ]
  %11 = call ptr @symtab_add(ptr noundef %0, i32 noundef %5, i32 noundef %.06.lcssa.i, ptr noundef nonnull %3)
  ret ptr %11
}